target datalayout = "e-m:e-p270:32:32-p271:32:32-p272:64:64-i64:64-i128:128-f80:128-n8:16:32:64-S128"
target triple = "x86_64-pc-linux-gnu"

%struct.lstopo_output = type { ptr, i32, i32, i32, ptr, i32, i32, i32, i32, i32, i32, i32, i32, ptr, ptr, i32, i32, i64, i64, i64, i32, [3 x [128 x i8]], i32, i32, ptr, i32, i32, i32, i32, i32, i32, %struct.hwloc_calc_level, i32, i32, i32, i64, [256 x i8], i32, i32, i32, i32, i32, float, [20 x i32], i32, i32, i32, [20 x i32], i32, [20 x i32], i32, [20 x i32], i32, i32, i32, i32, ptr, ptr, i32, [20 x i32], [20 x i32], [20 x i32], ptr, ptr, i64, ptr, i32, i32, i32 }
%struct.hwloc_calc_level = type { i32, i32, %union.hwloc_obj_attr_u, [32 x i8], i32, i32, i32, i32 }
%union.hwloc_obj_attr_u = type { %struct.hwloc_numanode_attr_s, [24 x i8] }
%struct.hwloc_numanode_attr_s = type { i64, i32, ptr }
%struct.lstopo_color = type { i32, i32, i32, i32, %union.lstopo_color_private_u, ptr }
%union.lstopo_color_private_u = type { %struct.lstopo_color_private_ascii_s }
%struct.lstopo_color_private_ascii_s = type { i32 }
%struct.hwloc_obj = type { i32, ptr, i32, ptr, i64, ptr, i32, i32, ptr, ptr, ptr, i32, ptr, ptr, i32, ptr, ptr, ptr, i32, i32, ptr, i32, ptr, i32, ptr, ptr, ptr, ptr, ptr, %struct.hwloc_infos_s, ptr, i64 }
%struct.hwloc_infos_s = type { ptr, i32, i32 }
%struct.lstopo_obj_userdata = type { %struct.hwloc_utils_userdata, i32, i32, %struct.lstopo_style, i32, i32, i32, i32, %struct.lstopo_children_position, %struct.lstopo_children_position, %struct.lstopo_children_position, %struct.lstopo_children_position, i32, i32, i32, [4 x %struct.lstopo_text_line], i32, i32 }
%struct.hwloc_utils_userdata = type { ptr, i64, ptr, ptr }
%struct.lstopo_style = type { ptr, ptr, ptr }
%struct.lstopo_children_position = type { i32, i32, i32, i32, i32, i32, ptr }
%struct.lstopo_text_line = type { [128 x i8], i32, i32 }

@.str.4 = private unnamed_addr constant [4 x i8] c"_%u\00", align 1
@.str.6 = private unnamed_addr constant [12 x i8] c" class='%s'\00", align 1
@.str.13 = private unnamed_addr constant [1 x i8] zeroinitializer, align 1
@.str.14 = private unnamed_addr constant [19 x i8] c" id='%s_%u_text%s'\00", align 1
@.str.15 = private unnamed_addr constant [18 x i8] c" id='anon_text%s'\00", align 1
@.str.16 = private unnamed_addr constant [20 x i8] c" font-weight='bold'\00", align 1
@.str.17 = private unnamed_addr constant [100 x i8] c"\09<text%s%s font-family='Monospace'%s x='%u' y='%u' fill='rgb(%d,%d,%d)' font-size='%dpx'>%s</text>\0A\00", align 1

; Function Attrs: inlinehint nounwind uwtable
define internal i32 @lstopo_obj_cpukind_style(ptr noundef %0, ptr noundef %1) #5 {
  %3 = alloca i32, align 4
  %4 = alloca ptr, align 8
  %5 = alloca ptr, align 8
  %6 = alloca ptr, align 8
  store ptr %0, ptr %4, align 8, !tbaa !4
  store ptr %1, ptr %5, align 8, !tbaa !33
  %7 = load ptr, ptr %4, align 8, !tbaa !4
  %8 = getelementptr inbounds nuw %struct.lstopo_output, ptr %7, i32 0, i32 55
  %9 = load i32, ptr %8, align 8, !tbaa !48
  %10 = icmp ne i32 %9, 0
  br i1 %10, label %11, label %27

11:                                               ; preds = %2
  %12 = load ptr, ptr %5, align 8, !tbaa !33
  %13 = icmp ne ptr %12, null
  br i1 %13, label %14, label %26

14:                                               ; preds = %11
  %15 = load ptr, ptr %5, align 8, !tbaa !33
  %16 = getelementptr inbounds nuw %struct.hwloc_obj, ptr %15, i32 0, i32 30
  %17 = load ptr, ptr %16, align 8, !tbaa !49
  %18 = icmp ne ptr %17, null
  br i1 %18, label %19, label %26

19:                                               ; preds = %14
  call void @llvm.lifetime.start.p0(i64 8, ptr %6) #7
  %20 = load ptr, ptr %5, align 8, !tbaa !33
  %21 = getelementptr inbounds nuw %struct.hwloc_obj, ptr %20, i32 0, i32 30
  %22 = load ptr, ptr %21, align 8, !tbaa !49
  store ptr %22, ptr %6, align 8, !tbaa !50
  %23 = load ptr, ptr %6, align 8, !tbaa !50
  %24 = getelementptr inbounds nuw %struct.lstopo_obj_userdata, ptr %23, i32 0, i32 5
  %25 = load i32, ptr %24, align 4, !tbaa !52
  store i32 %25, ptr %3, align 4
  call void @llvm.lifetime.end.p0(i64 8, ptr %6) #7
  br label %28

26:                                               ; preds = %14, %11
  br label %27

27:                                               ; preds = %26, %2
  store i32 0, ptr %3, align 4
  br label %28

28:                                               ; preds = %27, %19
  %29 = load i32, ptr %3, align 4
  ret i32 %29
}

; Function Attrs: nounwind uwtable
define internal void @native_svg_text(ptr noundef %0, ptr noundef %1, i32 noundef %2, i32 noundef %3, i32 noundef %4, i32 noundef %5, ptr noundef %6, ptr noundef %7, i32 noundef %8) #0 {
  %10 = alloca ptr, align 8
  %11 = alloca ptr, align 8
  %12 = alloca i32, align 4
  %13 = alloca i32, align 4
  %14 = alloca i32, align 4
  %15 = alloca i32, align 4
  %16 = alloca ptr, align 8
  %17 = alloca ptr, align 8
  %18 = alloca i32, align 4
  %19 = alloca ptr, align 8
  %20 = alloca i32, align 4
  %21 = alloca i32, align 4
  %22 = alloca i32, align 4
  %23 = alloca i32, align 4
  %24 = alloca [128 x i8], align 16
  %25 = alloca [128 x i8], align 16
  %26 = alloca [12 x i8], align 1
  %27 = alloca ptr, align 8
  %28 = alloca [64 x i8], align 16
  store ptr %0, ptr %10, align 8, !tbaa !4
  store ptr %1, ptr %11, align 8, !tbaa !31
  store i32 %2, ptr %12, align 4, !tbaa !24
  store i32 %3, ptr %13, align 4, !tbaa !24
  store i32 %4, ptr %14, align 4, !tbaa !24
  store i32 %5, ptr %15, align 4, !tbaa !24
  store ptr %6, ptr %16, align 8, !tbaa !9
  store ptr %7, ptr %17, align 8, !tbaa !33
  store i32 %8, ptr %18, align 4, !tbaa !24
  call void @llvm.lifetime.start.p0(i64 8, ptr %19) #7
  %29 = load ptr, ptr %10, align 8, !tbaa !4
  %30 = getelementptr inbounds nuw %struct.lstopo_output, ptr %29, i32 0, i32 4
  %31 = load ptr, ptr %30, align 8, !tbaa !25
  store ptr %31, ptr %19, align 8, !tbaa !23
  call void @llvm.lifetime.start.p0(i64 4, ptr %20) #7
  %32 = load ptr, ptr %10, align 8, !tbaa !4
  %33 = load ptr, ptr %17, align 8, !tbaa !33
  %34 = call i32 @lstopo_obj_cpukind_style(ptr noundef %32, ptr noundef %33)
  store i32 %34, ptr %20, align 4, !tbaa !24
  call void @llvm.lifetime.start.p0(i64 4, ptr %21) #7
  %35 = load ptr, ptr %11, align 8, !tbaa !31
  %36 = getelementptr inbounds nuw %struct.lstopo_color, ptr %35, i32 0, i32 0
  %37 = load i32, ptr %36, align 8, !tbaa !36
  store i32 %37, ptr %21, align 4, !tbaa !24
  call void @llvm.lifetime.start.p0(i64 4, ptr %22) #7
  %38 = load ptr, ptr %11, align 8, !tbaa !31
  %39 = getelementptr inbounds nuw %struct.lstopo_color, ptr %38, i32 0, i32 1
  %40 = load i32, ptr %39, align 4, !tbaa !38
  store i32 %40, ptr %22, align 4, !tbaa !24
  call void @llvm.lifetime.start.p0(i64 4, ptr %23) #7
  %41 = load ptr, ptr %11, align 8, !tbaa !31
  %42 = getelementptr inbounds nuw %struct.lstopo_color, ptr %41, i32 0, i32 2
  %43 = load i32, ptr %42, align 8, !tbaa !39
  store i32 %43, ptr %23, align 4, !tbaa !24
  call void @llvm.lifetime.start.p0(i64 128, ptr %24) #7
  call void @llvm.memset.p0.i64(ptr align 16 %24, i8 0, i64 128, i1 false)
  call void @llvm.lifetime.start.p0(i64 128, ptr %25) #7
  call void @llvm.memset.p0.i64(ptr align 16 %25, i8 0, i64 128, i1 false)
  call void @llvm.lifetime.start.p0(i64 12, ptr %26) #7
  call void @llvm.memset.p0.i64(ptr align 1 %26, i8 0, i64 12, i1 false)
  call void @llvm.lifetime.start.p0(i64 8, ptr %27) #7
  store ptr @.str.13, ptr %27, align 8, !tbaa !9
  %44 = load i32, ptr %18, align 4, !tbaa !24
  %45 = icmp ne i32 %44, 0
  br i1 %45, label %46, label %50

46:                                               ; preds = %9
  %47 = getelementptr inbounds [12 x i8], ptr %26, i64 0, i64 0
  %48 = load i32, ptr %18, align 4, !tbaa !24
  %49 = call i32 (ptr, i64, ptr, ...) @snprintf(ptr noundef %47, i64 noundef 12, ptr noundef @.str.4, i32 noundef %48) #7
  br label %50

50:                                               ; preds = %46, %9
  %51 = load ptr, ptr %17, align 8, !tbaa !33
  %52 = icmp ne ptr %51, null
  br i1 %52, label %53, label %67

53:                                               ; preds = %50
  call void @llvm.lifetime.start.p0(i64 64, ptr %28) #7
  %54 = getelementptr inbounds [64 x i8], ptr %28, i64 0, i64 0
  %55 = load ptr, ptr %17, align 8, !tbaa !33
  %56 = call i32 @hwloc_obj_type_snprintf(ptr noundef %54, i64 noundef 64, ptr noundef %55, i64 noundef 0)
  %57 = getelementptr inbounds [128 x i8], ptr %24, i64 0, i64 0
  %58 = getelementptr inbounds [64 x i8], ptr %28, i64 0, i64 0
  %59 = load ptr, ptr %17, align 8, !tbaa !33
  %60 = getelementptr inbounds nuw %struct.hwloc_obj, ptr %59, i32 0, i32 7
  %61 = load i32, ptr %60, align 4, !tbaa !40
  %62 = getelementptr inbounds [12 x i8], ptr %26, i64 0, i64 0
  %63 = call i32 (ptr, i64, ptr, ...) @snprintf(ptr noundef %57, i64 noundef 128, ptr noundef @.str.14, ptr noundef %58, i32 noundef %61, ptr noundef %62) #7
  %64 = getelementptr inbounds [128 x i8], ptr %25, i64 0, i64 0
  %65 = getelementptr inbounds [64 x i8], ptr %28, i64 0, i64 0
  %66 = call i32 (ptr, i64, ptr, ...) @snprintf(ptr noundef %64, i64 noundef 128, ptr noundef @.str.6, ptr noundef %65) #7
  call void @llvm.lifetime.end.p0(i64 64, ptr %28) #7
  br label %71

67:                                               ; preds = %50
  %68 = getelementptr inbounds [128 x i8], ptr %24, i64 0, i64 0
  %69 = getelementptr inbounds [12 x i8], ptr %26, i64 0, i64 0
  %70 = call i32 (ptr, i64, ptr, ...) @snprintf(ptr noundef %68, i64 noundef 128, ptr noundef @.str.15, ptr noundef %69) #7
  br label %71

71:                                               ; preds = %67, %53
  %72 = load i32, ptr %20, align 4, !tbaa !24
  %73 = urem i32 %72, 2
  %74 = icmp ne i32 %73, 0
  br i1 %74, label %75, label %76

75:                                               ; preds = %71
  store ptr @.str.16, ptr %27, align 8, !tbaa !9
  br label %76

76:                                               ; preds = %75, %71
  %77 = load ptr, ptr %19, align 8, !tbaa !23
  %78 = getelementptr inbounds [128 x i8], ptr %24, i64 0, i64 0
  %79 = getelementptr inbounds [128 x i8], ptr %25, i64 0, i64 0
  %80 = load ptr, ptr %27, align 8, !tbaa !9
  %81 = load i32, ptr %14, align 4, !tbaa !24
  %82 = load i32, ptr %15, align 4, !tbaa !24
  %83 = load i32, ptr %12, align 4, !tbaa !24
  %84 = add i32 %82, %83
  %85 = load i32, ptr %21, align 4, !tbaa !24
  %86 = load i32, ptr %22, align 4, !tbaa !24
  %87 = load i32, ptr %23, align 4, !tbaa !24
  %88 = load i32, ptr %12, align 4, !tbaa !24
  %89 = load ptr, ptr %16, align 8, !tbaa !9
  %90 = call i32 (ptr, ptr, ...) @fprintf(ptr noundef %77, ptr noundef @.str.17, ptr noundef %78, ptr noundef %79, ptr noundef %80, i32 noundef %81, i32 noundef %84, i32 noundef %85, i32 noundef %86, i32 noundef %87, i32 noundef %88, ptr noundef %89) #7
  call void @llvm.lifetime.end.p0(i64 8, ptr %27) #7
  call void @llvm.lifetime.end.p0(i64 12, ptr %26) #7
  call void @llvm.lifetime.end.p0(i64 128, ptr %25) #7
  call void @llvm.lifetime.end.p0(i64 128, ptr %24) #7
  call void @llvm.lifetime.end.p0(i64 4, ptr %23) #7
  call void @llvm.lifetime.end.p0(i64 4, ptr %22) #7
  call void @llvm.lifetime.end.p0(i64 4, ptr %21) #7
  call void @llvm.lifetime.end.p0(i64 4, ptr %20) #7
  call void @llvm.lifetime.end.p0(i64 8, ptr %19) #7
  ret void
}