; Function Attrs: nounwind uwtable
define internal void @native_svg_text(ptr noundef readonly captures(none) %0, ptr noundef readonly captures(none) %1, i32 noundef %2, i32 %3, i32 noundef %4, i32 noundef %5, ptr noundef %6, ptr noundef %7, i32 noundef %8) #0 {
  %10 = alloca [128 x i8], align 16
  %11 = alloca [128 x i8], align 16
  %12 = alloca [12 x i8], align 1
  %13 = alloca [64 x i8], align 16
  %14 = getelementptr inbounds nuw i8, ptr %0, i64 24
  %15 = load ptr, ptr %14, align 8, !tbaa !22
  %16 = getelementptr i8, ptr %0, i64 1304
  %.val = load i32, ptr %16, align 8, !tbaa !28
  %17 = icmp ne i32 %.val, 0
  %18 = icmp ne ptr %7, null
  %or.cond.i = and i1 %18, %17
  br i1 %or.cond.i, label %19, label %lstopo_obj_cpukind_style.exit

19:                                               ; preds = %9
  %20 = getelementptr inbounds nuw i8, ptr %7, i64 232
  %21 = load ptr, ptr %20, align 8, !tbaa !29
  %.not.i = icmp eq ptr %21, null
  br i1 %.not.i, label %lstopo_obj_cpukind_style.exit, label %22

22:                                               ; preds = %19
  %23 = getelementptr inbounds nuw i8, ptr %21, i64 68
  %24 = load i32, ptr %23, align 4, !tbaa !36
  %25 = and i32 %24, 1
  %26 = icmp eq i32 %25, 0
  %27 = select i1 %26, ptr @.str.13, ptr @.str.16
  br label %lstopo_obj_cpukind_style.exit

lstopo_obj_cpukind_style.exit:                    ; preds = %9, %19, %22
  %.0.i = phi ptr [ %27, %22 ], [ @.str.13, %19 ], [ @.str.13, %9 ]
  %28 = load i32, ptr %1, align 8, !tbaa !44
  %29 = getelementptr inbounds nuw i8, ptr %1, i64 4
  %30 = load i32, ptr %29, align 4, !tbaa !46
  %31 = getelementptr inbounds nuw i8, ptr %1, i64 8
  %32 = load i32, ptr %31, align 8, !tbaa !47
  call void @llvm.lifetime.start.p0(i64 128, ptr nonnull %10) #9
  call void @llvm.memset.p0.i64(ptr noundef nonnull align 16 dereferenceable(128) %10, i8 0, i64 128, i1 false)
  call void @llvm.lifetime.start.p0(i64 128, ptr nonnull %11) #9
  call void @llvm.memset.p0.i64(ptr noundef nonnull align 16 dereferenceable(128) %11, i8 0, i64 128, i1 false)
  call void @llvm.lifetime.start.p0(i64 12, ptr nonnull %12) #9
  call void @llvm.memset.p0.i64(ptr noundef nonnull align 1 dereferenceable(12) %12, i8 0, i64 12, i1 false)
  %.not = icmp eq i32 %8, 0
  br i1 %.not, label %35, label %33

33:                                               ; preds = %lstopo_obj_cpukind_style.exit
  %34 = call i32 (ptr, i64, ptr, ...) @snprintf(ptr noundef nonnull dereferenceable(1) %12, i64 noundef 12, ptr noundef nonnull @.str.4, i32 noundef %8) #9
  br label %35

35:                                               ; preds = %33, %lstopo_obj_cpukind_style.exit
  %.not23 = icmp eq ptr %7, null
  br i1 %.not23, label %42, label %36

36:                                               ; preds = %35
  call void @llvm.lifetime.start.p0(i64 64, ptr nonnull %13) #9
  %37 = call i32 @hwloc_obj_type_snprintf(ptr noundef nonnull %13, i64 noundef 64, ptr noundef nonnull %7, i64 noundef 0) #9
  %38 = getelementptr inbounds nuw i8, ptr %7, i64 52
  %39 = load i32, ptr %38, align 4, !tbaa !48
  %40 = call i32 (ptr, i64, ptr, ...) @snprintf(ptr noundef nonnull dereferenceable(1) %10, i64 noundef 128, ptr noundef nonnull @.str.14, ptr noundef nonnull %13, i32 noundef %39, ptr noundef nonnull %12) #9
  %41 = call i32 (ptr, i64, ptr, ...) @snprintf(ptr noundef nonnull dereferenceable(1) %11, i64 noundef 128, ptr noundef nonnull @.str.6, ptr noundef nonnull %13) #9
  call void @llvm.lifetime.end.p0(i64 64, ptr nonnull %13) #9
  br label %44

42:                                               ; preds = %35
  %43 = call i32 (ptr, i64, ptr, ...) @snprintf(ptr noundef nonnull dereferenceable(1) %10, i64 noundef 128, ptr noundef nonnull @.str.15, ptr noundef nonnull %12) #9
  br label %44

44:                                               ; preds = %42, %36
  %45 = add i32 %5, %2
  %46 = call i32 (ptr, ptr, ...) @fprintf(ptr noundef %15, ptr noundef nonnull @.str.17, ptr noundef nonnull %10, ptr noundef nonnull %11, ptr noundef nonnull %.0.i, i32 noundef %4, i32 noundef %45, i32 noundef %28, i32 noundef %30, i32 noundef %32, i32 noundef %2, ptr noundef %6) #9
  call void @llvm.lifetime.end.p0(i64 12, ptr nonnull %12) #9
  call void @llvm.lifetime.end.p0(i64 128, ptr nonnull %11) #9
  call void @llvm.lifetime.end.p0(i64 128, ptr nonnull %10) #9
  ret void
}